; Function Attrs: nofree norecurse nosync nounwind memory(read, argmem: readwrite, inaccessiblemem: none) uwtable
define hidden range(i32 0, 2) i32 @CBS_get_u16(ptr noundef captures(none) %0, ptr noundef writeonly captures(none) %1) local_unnamed_addr #10 {
  %3 = getelementptr inbounds nuw i8, ptr %0, i64 8
  %4 = load i64, ptr %3, align 8, !tbaa !13
  %5 = icmp ult i64 %4, 2
  br i1 %5, label %cbs_get_u.exit.thread, label %cbs_get.exit.i

cbs_get.exit.i:                                   ; preds = %2
  %6 = load ptr, ptr %0, align 8, !tbaa !6
  %7 = getelementptr inbounds nuw i8, ptr %6, i64 2
  store ptr %7, ptr %0, align 8, !tbaa !6
  %8 = add i64 %4, -2
  store i64 %8, ptr %3, align 8, !tbaa !13
  br label %9

9:                                                ; preds = %9, %cbs_get.exit.i
  %.017.i = phi i64 [ 0, %cbs_get.exit.i ], [ %15, %9 ]
  %.01016.i = phi i16 [ 0, %cbs_get.exit.i ], [ %14, %9 ]
  %10 = shl i16 %.01016.i, 8
  %11 = getelementptr inbounds nuw i8, ptr %6, i64 %.017.i
  %12 = load i8, ptr %11, align 1, !tbaa !16
  %13 = zext i8 %12 to i16
  %14 = or disjoint i16 %10, %13
  %15 = add nuw nsw i64 %.017.i, 1
  %exitcond.not.i = icmp eq i64 %15, 2
  br i1 %exitcond.not.i, label %cbs_get_u.exit, label %9, !llvm.loop !17

cbs_get_u.exit:                                   ; preds = %9
  store i16 %14, ptr %1, align 2, !tbaa !19
  br label %cbs_get_u.exit.thread

cbs_get_u.exit.thread:                            ; preds = %2, %cbs_get_u.exit
  %.0 = phi i32 [ 1, %cbs_get_u.exit ], [ 0, %2 ]
  ret i32 %.0
}